target datalayout = "e-m:e-p270:32:32-p271:32:32-p272:64:64-i64:64-i128:128-f80:128-n8:16:32:64-S128"
target triple = "x86_64-pc-linux-gnu"

%struct.MpegEncContext = type { ptr, i32, i32, i32, [12 x i32], i32, %struct.ScanTable, %struct.ScanTable, [64 x i8], [64 x i8], ptr, ptr, i32, i32, i32, i32, i32, i32, i32, i32, i32, i32, i32, i32, i32, i32, i32, i32, i32, i32, i32, i32, i64, i64, ptr, %struct.BufferPoolContext, i32, i32, %union.anon, i32, %struct.MPVWorkPicture, %struct.MPVWorkPicture, %struct.MPVWorkPicture, i32, [3 x i32], ptr, [3 x ptr], ptr, ptr, ptr, ptr, ptr, ptr, [3 x ptr], i32, ptr, ptr, ptr, ptr, %struct.ScratchpadContext, i32, i32, i32, i32, i32, i32, %struct.BlockDSPContext, %struct.H264ChromaContext, %struct.HpelDSPContext, %struct.IDCTDSPContext, %struct.QpelDSPContext, %struct.VideoDSPContext, %struct.H263DSPContext, ptr, [2 x [2 x ptr]], i32, i32, [2 x [4 x [2 x i32]]], [2 x [2 x i32]], [2 x [2 x [2 x i32]]], [2 x [64 x i16]], i32, i32, i32, i32, i32, [6 x i32], [6 x i32], [3 x ptr], ptr, [64 x i16], [64 x i16], [64 x i16], [64 x i16], i32, i32, %struct.GetBitContext, i32, i32, i32, i32, i32, i32, i32, i32, i32, i32, i32, i32, i32, i32, i32, i64, i64, i16, i16, i16, i16, i32, i32, i32, i32, i32, i32, i32, i32, i32, [3 x i32], i32, i32, i32, i32, i32, i32, %struct.GetBitContext, i32, [2 x [2 x i32]], i32, i32, i32, i32, i32, i32, i32, i32, i32, i32, i32, i32, i32, i32, [2 x i32], i32, i32, ptr, ptr, ptr, ptr, ptr, i32, i32, %struct.ERContext }
%struct.ScanTable = type { ptr, [64 x i8], [64 x i8] }
%struct.BufferPoolContext = type { ptr, ptr, ptr, ptr, ptr, i32, i32, i32 }
%union.anon = type { [32 x ptr] }
%struct.MPVWorkPicture = type { [3 x ptr], [3 x i64], ptr, ptr, [2 x ptr], ptr, ptr, [2 x ptr], i32 }
%struct.ScratchpadContext = type { ptr, ptr, %union.anon.0, i32 }
%union.anon.0 = type { ptr }
%struct.BlockDSPContext = type { ptr, ptr, [2 x ptr] }
%struct.H264ChromaContext = type { [4 x ptr], [4 x ptr] }
%struct.HpelDSPContext = type { [4 x [4 x ptr]], [4 x [4 x ptr]], [4 x [4 x ptr]], [4 x ptr] }
%struct.IDCTDSPContext = type { ptr, ptr, ptr, ptr, ptr, ptr, [64 x i8], i32, i32 }
%struct.QpelDSPContext = type { [2 x [16 x ptr]], [2 x [16 x ptr]], [2 x [16 x ptr]] }
%struct.VideoDSPContext = type { ptr, ptr }
%struct.H263DSPContext = type { ptr, ptr }
%struct.GetBitContext = type { ptr, ptr, i32, i32, i32 }
%struct.ERContext = type { ptr, ptr, i32, ptr, i32, i32, i32, i64, i64, i32, i32, ptr, ptr, [3 x ptr], ptr, ptr, [2 x [4 x [2 x i32]]], %struct.ERPicture, %struct.ERPicture, %struct.ERPicture, [2 x ptr], [2 x ptr], i16, i16, i32, i32, ptr, ptr }
%struct.ERPicture = type { ptr, ptr, ptr, [2 x ptr], [2 x ptr], ptr, i32 }

; Function Attrs: nounwind uwtable
define void @ff_mpeg4_clean_buffers(ptr noundef %0) #2 {
  %2 = alloca ptr, align 8
  %3 = alloca i32, align 4
  %4 = alloca i32, align 4
  %5 = alloca i32, align 4
  %6 = alloca i32, align 4
  store ptr %0, ptr %2, align 8, !tbaa !8
  call void @llvm.lifetime.start.p0(i64 4, ptr %3) #6
  call void @llvm.lifetime.start.p0(i64 4, ptr %4) #6
  call void @llvm.lifetime.start.p0(i64 4, ptr %5) #6
  call void @llvm.lifetime.start.p0(i64 4, ptr %6) #6
  %7 = load ptr, ptr %2, align 8, !tbaa !8
  %8 = getelementptr inbounds nuw %struct.MpegEncContext, ptr %7, i32 0, i32 28
  %9 = load i32, ptr %8, align 8, !tbaa !11
  store i32 %9, ptr %5, align 4, !tbaa !4
  %10 = load ptr, ptr %2, align 8, !tbaa !8
  %11 = getelementptr inbounds nuw %struct.MpegEncContext, ptr %10, i32 0, i32 83
  %12 = load i32, ptr %11, align 8, !tbaa !39
  %13 = mul nsw i32 2, %12
  %14 = sub nsw i32 %13, 1
  %15 = load i32, ptr %5, align 4, !tbaa !4
  %16 = mul nsw i32 %14, %15
  %17 = load ptr, ptr %2, align 8, !tbaa !8
  %18 = getelementptr inbounds nuw %struct.MpegEncContext, ptr %17, i32 0, i32 82
  %19 = load i32, ptr %18, align 4, !tbaa !40
  %20 = mul nsw i32 %19, 2
  %21 = add nsw i32 %16, %20
  %22 = sub nsw i32 %21, 1
  store i32 %22, ptr %6, align 4, !tbaa !4
  %23 = load ptr, ptr %2, align 8, !tbaa !8
  %24 = getelementptr inbounds nuw %struct.MpegEncContext, ptr %23, i32 0, i32 27
  %25 = load i32, ptr %24, align 4, !tbaa !41
  store i32 %25, ptr %3, align 4, !tbaa !4
  %26 = load ptr, ptr %2, align 8, !tbaa !8
  %27 = getelementptr inbounds nuw %struct.MpegEncContext, ptr %26, i32 0, i32 83
  %28 = load i32, ptr %27, align 8, !tbaa !39
  %29 = sub nsw i32 %28, 1
  %30 = load i32, ptr %3, align 4, !tbaa !4
  %31 = mul nsw i32 %29, %30
  %32 = load ptr, ptr %2, align 8, !tbaa !8
  %33 = getelementptr inbounds nuw %struct.MpegEncContext, ptr %32, i32 0, i32 82
  %34 = load i32, ptr %33, align 4, !tbaa !40
  %35 = add nsw i32 %31, %34
  %36 = sub nsw i32 %35, 1
  store i32 %36, ptr %4, align 4, !tbaa !4
  %37 = load ptr, ptr %2, align 8, !tbaa !8
  %38 = getelementptr inbounds nuw %struct.MpegEncContext, ptr %37, i32 0, i32 53
  %39 = getelementptr inbounds [3 x ptr], ptr %38, i64 0, i64 0
  %40 = load ptr, ptr %39, align 8, !tbaa !42
  %41 = load i32, ptr %6, align 4, !tbaa !4
  %42 = sext i32 %41 to i64
  %43 = getelementptr inbounds [16 x i16], ptr %40, i64 %42
  %44 = load i32, ptr %5, align 4, !tbaa !4
  %45 = mul nsw i32 %44, 2
  %46 = add nsw i32 %45, 1
  %47 = mul nsw i32 %46, 16
  %48 = sext i32 %47 to i64
  %49 = mul i64 %48, 2
  call void @llvm.memset.p0.i64(ptr align 2 %43, i8 0, i64 %49, i1 false)
  %50 = load ptr, ptr %2, align 8, !tbaa !8
  %51 = getelementptr inbounds nuw %struct.MpegEncContext, ptr %50, i32 0, i32 53
  %52 = getelementptr inbounds [3 x ptr], ptr %51, i64 0, i64 1
  %53 = load ptr, ptr %52, align 8, !tbaa !42
  %54 = load i32, ptr %4, align 4, !tbaa !4
  %55 = sext i32 %54 to i64
  %56 = getelementptr inbounds [16 x i16], ptr %53, i64 %55
  %57 = load i32, ptr %3, align 4, !tbaa !4
  %58 = add nsw i32 %57, 1
  %59 = mul nsw i32 %58, 16
  %60 = sext i32 %59 to i64
  %61 = mul i64 %60, 2
  call void @llvm.memset.p0.i64(ptr align 2 %56, i8 0, i64 %61, i1 false)
  %62 = load ptr, ptr %2, align 8, !tbaa !8
  %63 = getelementptr inbounds nuw %struct.MpegEncContext, ptr %62, i32 0, i32 53
  %64 = getelementptr inbounds [3 x ptr], ptr %63, i64 0, i64 2
  %65 = load ptr, ptr %64, align 8, !tbaa !42
  %66 = load i32, ptr %4, align 4, !tbaa !4
  %67 = sext i32 %66 to i64
  %68 = getelementptr inbounds [16 x i16], ptr %65, i64 %67
  %69 = load i32, ptr %3, align 4, !tbaa !4
  %70 = add nsw i32 %69, 1
  %71 = mul nsw i32 %70, 16
  %72 = sext i32 %71 to i64
  %73 = mul i64 %72, 2
  call void @llvm.memset.p0.i64(ptr align 2 %68, i8 0, i64 %73, i1 false)
  %74 = load ptr, ptr %2, align 8, !tbaa !8
  %75 = getelementptr inbounds nuw %struct.MpegEncContext, ptr %74, i32 0, i32 79
  %76 = getelementptr inbounds [2 x [2 x [2 x i32]]], ptr %75, i64 0, i64 1
  %77 = getelementptr inbounds [2 x [2 x i32]], ptr %76, i64 0, i64 0
  %78 = getelementptr inbounds [2 x i32], ptr %77, i64 0, i64 1
  store i32 0, ptr %78, align 4, !tbaa !4
  %79 = load ptr, ptr %2, align 8, !tbaa !8
  %80 = getelementptr inbounds nuw %struct.MpegEncContext, ptr %79, i32 0, i32 79
  %81 = getelementptr inbounds [2 x [2 x [2 x i32]]], ptr %80, i64 0, i64 1
  %82 = getelementptr inbounds [2 x [2 x i32]], ptr %81, i64 0, i64 0
  %83 = getelementptr inbounds [2 x i32], ptr %82, i64 0, i64 0
  store i32 0, ptr %83, align 8, !tbaa !4
  %84 = load ptr, ptr %2, align 8, !tbaa !8
  %85 = getelementptr inbounds nuw %struct.MpegEncContext, ptr %84, i32 0, i32 79
  %86 = getelementptr inbounds [2 x [2 x [2 x i32]]], ptr %85, i64 0, i64 0
  %87 = getelementptr inbounds [2 x [2 x i32]], ptr %86, i64 0, i64 0
  %88 = getelementptr inbounds [2 x i32], ptr %87, i64 0, i64 1
  store i32 0, ptr %88, align 4, !tbaa !4
  %89 = load ptr, ptr %2, align 8, !tbaa !8
  %90 = getelementptr inbounds nuw %struct.MpegEncContext, ptr %89, i32 0, i32 79
  %91 = getelementptr inbounds [2 x [2 x [2 x i32]]], ptr %90, i64 0, i64 0
  %92 = getelementptr inbounds [2 x [2 x i32]], ptr %91, i64 0, i64 0
  %93 = getelementptr inbounds [2 x i32], ptr %92, i64 0, i64 0
  store i32 0, ptr %93, align 8, !tbaa !4
  call void @llvm.lifetime.end.p0(i64 4, ptr %6) #6
  call void @llvm.lifetime.end.p0(i64 4, ptr %5) #6
  call void @llvm.lifetime.end.p0(i64 4, ptr %4) #6
  call void @llvm.lifetime.end.p0(i64 4, ptr %3) #6
  ret void
}