; Function Attrs: mustprogress nofree norecurse nosync nounwind willreturn memory(write, argmem: readwrite, inaccessiblemem: none) uwtable
define void @ff_mpeg4_clean_buffers(ptr noundef captures(none) initializes((3056, 3064), (3072, 3080)) %0) local_unnamed_addr #3 {
  %2 = getelementptr inbounds nuw i8, ptr %0, i64 552
  %3 = load i32, ptr %2, align 8, !tbaa !4
  %4 = getelementptr inbounds nuw i8, ptr %0, i64 3352
  %5 = load i32, ptr %4, align 8, !tbaa !36
  %6 = shl nsw i32 %5, 1
  %7 = add nsw i32 %6, -1
  %8 = mul nsw i32 %7, %3
  %9 = getelementptr inbounds nuw i8, ptr %0, i64 3348
  %10 = load i32, ptr %9, align 4, !tbaa !37
  %11 = shl nsw i32 %10, 1
  %12 = add nsw i32 %8, %11
  %13 = getelementptr inbounds nuw i8, ptr %0, i64 548
  %14 = load i32, ptr %13, align 4, !tbaa !38
  %15 = add nsw i32 %5, -1
  %16 = mul nsw i32 %14, %15
  %17 = add i32 %10, -1
  %18 = add i32 %17, %16
  %19 = getelementptr inbounds nuw i8, ptr %0, i64 1376
  %20 = load ptr, ptr %19, align 8, !tbaa !39
  %21 = sext i32 %12 to i64
  %22 = getelementptr [16 x i16], ptr %20, i64 %21
  %23 = getelementptr i8, ptr %22, i64 -32
  %24 = shl i32 %3, 5
  %25 = or disjoint i32 %24, 16
  %26 = sext i32 %25 to i64
  %27 = shl nsw i64 %26, 1
  tail call void @llvm.memset.p0.i64(ptr noundef nonnull align 2 dereferenceable(1) %23, i8 0, i64 %27, i1 false)
  %28 = getelementptr inbounds nuw i8, ptr %0, i64 1384
  %29 = load ptr, ptr %28, align 8, !tbaa !39
  %30 = sext i32 %18 to i64
  %31 = getelementptr inbounds [16 x i16], ptr %29, i64 %30
  %32 = shl i32 %14, 4
  %33 = add i32 %32, 16
  %34 = sext i32 %33 to i64
  %35 = shl nsw i64 %34, 1
  tail call void @llvm.memset.p0.i64(ptr align 2 %31, i8 0, i64 %35, i1 false)
  %36 = getelementptr inbounds nuw i8, ptr %0, i64 1392
  %37 = load ptr, ptr %36, align 8, !tbaa !39
  %38 = getelementptr inbounds [16 x i16], ptr %37, i64 %30
  tail call void @llvm.memset.p0.i64(ptr align 2 %38, i8 0, i64 %35, i1 false)
  %39 = getelementptr inbounds nuw i8, ptr %0, i64 3056
  %40 = getelementptr inbounds nuw i8, ptr %0, i64 3072
  %41 = getelementptr inbounds nuw i8, ptr %0, i64 3076
  store i32 0, ptr %41, align 4, !tbaa !40
  store i32 0, ptr %40, align 8, !tbaa !40
  %42 = getelementptr inbounds nuw i8, ptr %0, i64 3060
  store i32 0, ptr %42, align 4, !tbaa !40
  store i32 0, ptr %39, align 8, !tbaa !40
  ret void
}